target datalayout = "e-m:e-p270:32:32-p271:32:32-p272:64:64-i64:64-i128:128-f80:128-n8:16:32:64-S128"
target triple = "x86_64-pc-linux-gnu"

%struct.pointf_s = type { double, double }
%struct.boxf = type { %struct.pointf_s, %struct.pointf_s }
%struct.htmltxt_t = type { ptr, i64, i8, %struct.boxf }
%struct.htextspan_t = type { ptr, i64, i8, double, double }
%struct.textspan_t = type { ptr, ptr, ptr, ptr, double, double, %struct.pointf_s, i8 }

; Function Attrs: nounwind uwtable
define void @free_html_text(ptr noundef %0) #0 {
  %2 = alloca ptr, align 8
  %3 = alloca ptr, align 8
  %4 = alloca ptr, align 8
  %5 = alloca i32, align 4
  %6 = alloca i64, align 8
  %7 = alloca i64, align 8
  store ptr %0, ptr %2, align 8, !tbaa !103
  call void @llvm.lifetime.start.p0(i64 8, ptr %3) #14
  call void @llvm.lifetime.start.p0(i64 8, ptr %4) #14
  %8 = load ptr, ptr %2, align 8, !tbaa !103
  %9 = icmp ne ptr %8, null
  br i1 %9, label %11, label %10

10:                                               ; preds = %1
  store i32 1, ptr %5, align 4
  br label %70

11:                                               ; preds = %1
  %12 = load ptr, ptr %2, align 8, !tbaa !103
  %13 = getelementptr inbounds nuw %struct.htmltxt_t, ptr %12, i32 0, i32 0
  %14 = load ptr, ptr %13, align 8, !tbaa !133
  store ptr %14, ptr %3, align 8, !tbaa !103
  call void @llvm.lifetime.start.p0(i64 8, ptr %6) #14
  store i64 0, ptr %6, align 8, !tbaa !142
  br label %15

15:                                               ; preds = %62, %11
  %16 = load i64, ptr %6, align 8, !tbaa !142
  %17 = load ptr, ptr %2, align 8, !tbaa !103
  %18 = getelementptr inbounds nuw %struct.htmltxt_t, ptr %17, i32 0, i32 1
  %19 = load i64, ptr %18, align 8, !tbaa !128
  %20 = icmp ult i64 %16, %19
  br i1 %20, label %22, label %21

21:                                               ; preds = %15
  store i32 2, ptr %5, align 4
  call void @llvm.lifetime.end.p0(i64 8, ptr %6) #14
  br label %65

22:                                               ; preds = %15
  %23 = load ptr, ptr %3, align 8, !tbaa !103
  %24 = getelementptr inbounds nuw %struct.htextspan_t, ptr %23, i32 0, i32 0
  %25 = load ptr, ptr %24, align 8, !tbaa !143
  store ptr %25, ptr %4, align 8, !tbaa !103
  call void @llvm.lifetime.start.p0(i64 8, ptr %7) #14
  store i64 0, ptr %7, align 8, !tbaa !142
  br label %26

26:                                               ; preds = %56, %22
  %27 = load i64, ptr %7, align 8, !tbaa !142
  %28 = load ptr, ptr %3, align 8, !tbaa !103
  %29 = getelementptr inbounds nuw %struct.htextspan_t, ptr %28, i32 0, i32 1
  %30 = load i64, ptr %29, align 8, !tbaa !145
  %31 = icmp ult i64 %27, %30
  br i1 %31, label %33, label %32

32:                                               ; preds = %26
  store i32 5, ptr %5, align 4
  call void @llvm.lifetime.end.p0(i64 8, ptr %7) #14
  br label %59

33:                                               ; preds = %26
  %34 = load ptr, ptr %4, align 8, !tbaa !103
  %35 = getelementptr inbounds nuw %struct.textspan_t, ptr %34, i32 0, i32 0
  %36 = load ptr, ptr %35, align 8, !tbaa !146
  call void @free(ptr noundef %36) #14
  %37 = load ptr, ptr %4, align 8, !tbaa !103
  %38 = getelementptr inbounds nuw %struct.textspan_t, ptr %37, i32 0, i32 2
  %39 = load ptr, ptr %38, align 8, !tbaa !148
  %40 = icmp ne ptr %39, null
  br i1 %40, label %41, label %53

41:                                               ; preds = %33
  %42 = load ptr, ptr %4, align 8, !tbaa !103
  %43 = getelementptr inbounds nuw %struct.textspan_t, ptr %42, i32 0, i32 3
  %44 = load ptr, ptr %43, align 8, !tbaa !149
  %45 = icmp ne ptr %44, null
  br i1 %45, label %46, label %53

46:                                               ; preds = %41
  %47 = load ptr, ptr %4, align 8, !tbaa !103
  %48 = getelementptr inbounds nuw %struct.textspan_t, ptr %47, i32 0, i32 3
  %49 = load ptr, ptr %48, align 8, !tbaa !149
  %50 = load ptr, ptr %4, align 8, !tbaa !103
  %51 = getelementptr inbounds nuw %struct.textspan_t, ptr %50, i32 0, i32 2
  %52 = load ptr, ptr %51, align 8, !tbaa !148
  call void %49(ptr noundef %52)
  br label %53

53:                                               ; preds = %46, %41, %33
  %54 = load ptr, ptr %4, align 8, !tbaa !103
  %55 = getelementptr inbounds nuw %struct.textspan_t, ptr %54, i32 1
  store ptr %55, ptr %4, align 8, !tbaa !103
  br label %56

56:                                               ; preds = %53
  %57 = load i64, ptr %7, align 8, !tbaa !142
  %58 = add i64 %57, 1
  store i64 %58, ptr %7, align 8, !tbaa !142
  br label %26, !llvm.loop !150

59:                                               ; preds = %32
  %60 = load ptr, ptr %3, align 8, !tbaa !103
  %61 = getelementptr inbounds nuw %struct.htextspan_t, ptr %60, i32 1
  store ptr %61, ptr %3, align 8, !tbaa !103
  br label %62

62:                                               ; preds = %59
  %63 = load i64, ptr %6, align 8, !tbaa !142
  %64 = add i64 %63, 1
  store i64 %64, ptr %6, align 8, !tbaa !142
  br label %15, !llvm.loop !151

65:                                               ; preds = %21
  %66 = load ptr, ptr %2, align 8, !tbaa !103
  %67 = getelementptr inbounds nuw %struct.htmltxt_t, ptr %66, i32 0, i32 0
  %68 = load ptr, ptr %67, align 8, !tbaa !133
  call void @free(ptr noundef %68) #14
  %69 = load ptr, ptr %2, align 8, !tbaa !103
  call void @free(ptr noundef %69) #14
  store i32 0, ptr %5, align 4
  br label %70

70:                                               ; preds = %65, %10
  call void @llvm.lifetime.end.p0(i64 8, ptr %4) #14
  call void @llvm.lifetime.end.p0(i64 8, ptr %3) #14
  %71 = load i32, ptr %5, align 4
  switch i32 %71, label %73 [
    i32 0, label %72
    i32 1, label %72
  ]

72:                                               ; preds = %70, %70
  ret void

73:                                               ; preds = %70
  unreachable
}