; Function Attrs: nounwind uwtable
define void @free_html_text(ptr noundef captures(address_is_null) %0) local_unnamed_addr #0 {
  %.not = icmp eq ptr %0, null
  br i1 %.not, label %27, label %2

2:                                                ; preds = %1
  %3 = load ptr, ptr %0, align 8, !tbaa !136
  %4 = getelementptr inbounds nuw i8, ptr %0, i64 8
  %5 = load i64, ptr %4, align 8, !tbaa !130
  %.not32 = icmp eq i64 %5, 0
  br i1 %.not32, label %._crit_edge31, label %.lr.ph30

._crit_edge31.loopexit:                           ; preds = %._crit_edge
  %.pre34 = load ptr, ptr %0, align 8, !tbaa !136
  br label %._crit_edge31

._crit_edge31:                                    ; preds = %._crit_edge31.loopexit, %2
  %6 = phi ptr [ %.pre34, %._crit_edge31.loopexit ], [ %3, %2 ]
  tail call void @free(ptr noundef %6) #23
  tail call void @free(ptr noundef nonnull %0) #23
  br label %27

.lr.ph30:                                         ; preds = %2, %._crit_edge
  %7 = phi i64 [ %11, %._crit_edge ], [ %5, %2 ]
  %.01728 = phi i64 [ %13, %._crit_edge ], [ 0, %2 ]
  %.01927 = phi ptr [ %12, %._crit_edge ], [ %3, %2 ]
  %8 = getelementptr inbounds nuw i8, ptr %.01927, i64 8
  %9 = load i64, ptr %8, align 8, !tbaa !142
  %.not33 = icmp eq i64 %9, 0
  br i1 %.not33, label %._crit_edge, label %.lr.ph.preheader

.lr.ph.preheader:                                 ; preds = %.lr.ph30
  %10 = load ptr, ptr %.01927, align 8, !tbaa !143
  br label %.lr.ph

._crit_edge.loopexit:                             ; preds = %22
  %.pre = load i64, ptr %4, align 8, !tbaa !130
  br label %._crit_edge

._crit_edge:                                      ; preds = %._crit_edge.loopexit, %.lr.ph30
  %11 = phi i64 [ %.pre, %._crit_edge.loopexit ], [ %7, %.lr.ph30 ]
  %12 = getelementptr inbounds nuw i8, ptr %.01927, i64 40
  %13 = add nuw i64 %.01728, 1
  %14 = icmp ult i64 %13, %11
  br i1 %14, label %.lr.ph30, label %._crit_edge31.loopexit, !llvm.loop !163

.lr.ph:                                           ; preds = %.lr.ph.preheader, %22
  %.026 = phi i64 [ %24, %22 ], [ 0, %.lr.ph.preheader ]
  %.01825 = phi ptr [ %23, %22 ], [ %10, %.lr.ph.preheader ]
  %15 = load ptr, ptr %.01825, align 8, !tbaa !147
  tail call void @free(ptr noundef %15) #23
  %16 = getelementptr inbounds nuw i8, ptr %.01825, i64 16
  %17 = load ptr, ptr %16, align 8, !tbaa !151
  %.not23 = icmp eq ptr %17, null
  br i1 %.not23, label %22, label %18

18:                                               ; preds = %.lr.ph
  %19 = getelementptr inbounds nuw i8, ptr %.01825, i64 24
  %20 = load ptr, ptr %19, align 8, !tbaa !164
  %.not24 = icmp eq ptr %20, null
  br i1 %.not24, label %22, label %21

21:                                               ; preds = %18
  tail call void %20(ptr noundef nonnull %17) #23
  br label %22

22:                                               ; preds = %21, %18, %.lr.ph
  %23 = getelementptr inbounds nuw i8, ptr %.01825, i64 72
  %24 = add nuw i64 %.026, 1
  %25 = load i64, ptr %8, align 8, !tbaa !142
  %26 = icmp ult i64 %24, %25
  br i1 %26, label %.lr.ph, label %._crit_edge.loopexit, !llvm.loop !165

27:                                               ; preds = %1, %._crit_edge31
  ret void
}